target datalayout = "e-m:e-p270:32:32-p271:32:32-p272:64:64-i64:64-i128:128-f80:128-n8:16:32:64-S128"
target triple = "x86_64-pc-linux-gnu"

%struct.DdManager = type { %struct.DdNode, ptr, ptr, ptr, ptr, ptr, ptr, ptr, i32, i32, double, double, double, i32, i32, i32, i32, i32, i32, ptr, ptr, %struct.DdSubtable, i32, i32, i32, i32, i32, i32, i32, double, i32, i32, i32, ptr, i64, double, i32, ptr, ptr, ptr, ptr, ptr, ptr, ptr, i32, ptr, ptr, ptr, ptr, ptr, ptr, i32, i32, i32, double, i32, i32, i32, i32, double, double, i32, i32, i32, i32, i32, i32, i32, i32, i32, ptr, ptr, i32, i32, i32, i32, i32, i32, ptr, ptr, ptr, ptr, ptr, ptr, ptr, ptr, i32, i64, i64, i64, i32, i64, i64, double, double, double, double, double, double, i32, ptr, ptr, i64 }
%struct.DdNode = type { i32, i32, ptr, %union.anon.1, i64 }
%union.anon.1 = type { %struct.DdChildren }
%struct.DdChildren = type { ptr, ptr }
%struct.DdSubtable = type { ptr, i32, i32, i32, i32, i32, i32, i32, i32, i32, i32, i32 }

; Function Attrs: nounwind uwtable
define void @Abc_CountZddCubes_rec(ptr noundef %0, ptr noundef %1, ptr noundef %2) #0 {
  %4 = alloca ptr, align 8
  %5 = alloca ptr, align 8
  %6 = alloca ptr, align 8
  %7 = alloca ptr, align 8
  %8 = alloca ptr, align 8
  %9 = alloca ptr, align 8
  %10 = alloca i32, align 4
  store ptr %0, ptr %4, align 8, !tbaa !15
  store ptr %1, ptr %5, align 8, !tbaa !19
  store ptr %2, ptr %6, align 8, !tbaa !10
  call void @llvm.lifetime.start.p0(i64 8, ptr %7) #10
  call void @llvm.lifetime.start.p0(i64 8, ptr %8) #10
  call void @llvm.lifetime.start.p0(i64 8, ptr %9) #10
  %11 = load ptr, ptr %5, align 8, !tbaa !19
  %12 = load ptr, ptr %4, align 8, !tbaa !15
  %13 = getelementptr inbounds nuw %struct.DdManager, ptr %12, i32 0, i32 2
  %14 = load ptr, ptr %13, align 8, !tbaa !95
  %15 = icmp eq ptr %11, %14
  br i1 %15, label %16, label %17

16:                                               ; preds = %3
  store i32 1, ptr %10, align 4
  br label %44

17:                                               ; preds = %3
  %18 = load ptr, ptr %5, align 8, !tbaa !19
  %19 = load ptr, ptr %4, align 8, !tbaa !15
  %20 = getelementptr inbounds nuw %struct.DdManager, ptr %19, i32 0, i32 1
  %21 = load ptr, ptr %20, align 8, !tbaa !96
  %22 = icmp eq ptr %18, %21
  br i1 %22, label %23, label %27

23:                                               ; preds = %17
  %24 = load ptr, ptr %6, align 8, !tbaa !10
  %25 = load i32, ptr %24, align 4, !tbaa !8
  %26 = add nsw i32 %25, 1
  store i32 %26, ptr %24, align 4, !tbaa !8
  store i32 1, ptr %10, align 4
  br label %44

27:                                               ; preds = %17
  %28 = load ptr, ptr %6, align 8, !tbaa !10
  %29 = load i32, ptr %28, align 4, !tbaa !8
  %30 = icmp sgt i32 %29, 1000000
  br i1 %30, label %31, label %32

31:                                               ; preds = %27
  store i32 1, ptr %10, align 4
  br label %44

32:                                               ; preds = %27
  %33 = load ptr, ptr %4, align 8, !tbaa !15
  %34 = load ptr, ptr %5, align 8, !tbaa !19
  call void @extraDecomposeCover(ptr noundef %33, ptr noundef %34, ptr noundef %7, ptr noundef %8, ptr noundef %9)
  %35 = load ptr, ptr %4, align 8, !tbaa !15
  %36 = load ptr, ptr %7, align 8, !tbaa !19
  %37 = load ptr, ptr %6, align 8, !tbaa !10
  call void @Abc_CountZddCubes_rec(ptr noundef %35, ptr noundef %36, ptr noundef %37)
  %38 = load ptr, ptr %4, align 8, !tbaa !15
  %39 = load ptr, ptr %8, align 8, !tbaa !19
  %40 = load ptr, ptr %6, align 8, !tbaa !10
  call void @Abc_CountZddCubes_rec(ptr noundef %38, ptr noundef %39, ptr noundef %40)
  %41 = load ptr, ptr %4, align 8, !tbaa !15
  %42 = load ptr, ptr %9, align 8, !tbaa !19
  %43 = load ptr, ptr %6, align 8, !tbaa !10
  call void @Abc_CountZddCubes_rec(ptr noundef %41, ptr noundef %42, ptr noundef %43)
  store i32 0, ptr %10, align 4
  br label %44

44:                                               ; preds = %32, %31, %23, %16
  call void @llvm.lifetime.end.p0(i64 8, ptr %9) #10
  call void @llvm.lifetime.end.p0(i64 8, ptr %8) #10
  call void @llvm.lifetime.end.p0(i64 8, ptr %7) #10
  %45 = load i32, ptr %10, align 4
  switch i32 %45, label %47 [
    i32 0, label %46
    i32 1, label %46
  ]

46:                                               ; preds = %44, %44
  ret void

47:                                               ; preds = %44
  unreachable
}