; Function Attrs: nounwind uwtable
define void @Abc_CountZddCubes_rec(ptr noundef %0, ptr noundef %1, ptr noundef %2) local_unnamed_addr #2 {
  %4 = alloca ptr, align 8
  %5 = alloca ptr, align 8
  %6 = alloca ptr, align 8
  call void @llvm.lifetime.start.p0(i64 8, ptr nonnull %4) #17
  call void @llvm.lifetime.start.p0(i64 8, ptr nonnull %5) #17
  call void @llvm.lifetime.start.p0(i64 8, ptr nonnull %6) #17
  %7 = getelementptr inbounds nuw i8, ptr %0, i64 48
  %8 = load ptr, ptr %7, align 8, !tbaa !80
  %9 = icmp eq ptr %1, %8
  br i1 %9, label %23, label %10

10:                                               ; preds = %3
  %11 = getelementptr inbounds nuw i8, ptr %0, i64 40
  %12 = load ptr, ptr %11, align 8, !tbaa !81
  %13 = icmp eq ptr %1, %12
  %14 = load i32, ptr %2, align 4, !tbaa !6
  br i1 %13, label %15, label %17

15:                                               ; preds = %10
  %16 = add nsw i32 %14, 1
  store i32 %16, ptr %2, align 4, !tbaa !6
  br label %23

17:                                               ; preds = %10
  %18 = icmp sgt i32 %14, 1000000
  br i1 %18, label %23, label %19

19:                                               ; preds = %17
  call void @extraDecomposeCover(ptr noundef nonnull %0, ptr noundef %1, ptr noundef nonnull %4, ptr noundef nonnull %5, ptr noundef nonnull %6) #17
  %20 = load ptr, ptr %4, align 8, !tbaa !10
  call void @Abc_CountZddCubes_rec(ptr noundef nonnull %0, ptr noundef %20, ptr noundef nonnull %2)
  %21 = load ptr, ptr %5, align 8, !tbaa !10
  call void @Abc_CountZddCubes_rec(ptr noundef nonnull %0, ptr noundef %21, ptr noundef nonnull %2)
  %22 = load ptr, ptr %6, align 8, !tbaa !10
  call void @Abc_CountZddCubes_rec(ptr noundef nonnull %0, ptr noundef %22, ptr noundef nonnull %2)
  br label %23

23:                                               ; preds = %17, %3, %19, %15
  call void @llvm.lifetime.end.p0(i64 8, ptr nonnull %6) #17
  call void @llvm.lifetime.end.p0(i64 8, ptr nonnull %5) #17
  call void @llvm.lifetime.end.p0(i64 8, ptr nonnull %4) #17
  ret void
}